; Function Attrs: nounwind uwtable
define void @Io_ReadPlaCubeSetdown(ptr noundef captures(none) initializes((4, 8)) %0, ptr noundef readonly captures(none) %1, i32 noundef %2, i32 noundef %3) local_unnamed_addr #0 {
  %5 = getelementptr inbounds nuw i8, ptr %0, i64 4
  store i32 0, ptr %5, align 4, !tbaa !40
  %6 = icmp sgt i32 %2, 0
  br i1 %6, label %.preheader.lr.ph, label %._crit_edge.thread

.preheader.lr.ph:                                 ; preds = %4
  %7 = icmp sgt i32 %3, 0
  %.phi.trans.insert.i = getelementptr inbounds nuw i8, ptr %0, i64 8
  br i1 %7, label %.preheader.us.preheader, label %.preheader

.preheader.us.preheader:                          ; preds = %.preheader.lr.ph
  %wide.trip.count = zext nneg i32 %2 to i64
  br label %.preheader.us

.preheader.us:                                    ; preds = %.preheader.us.preheader, %Vec_StrPrintStr.exit.us
  %indvars.iv = phi i64 [ 0, %.preheader.us.preheader ], [ %indvars.iv.next, %Vec_StrPrintStr.exit.us ]
  %8 = getelementptr inbounds nuw ptr, ptr %1, i64 %indvars.iv
  br label %38

..lr.ph.i_crit_edge.us:                           ; preds = %Vec_StrPush.exit.us, %Vec_StrPush.exit.i.us
  %indvars.iv.i.us = phi i64 [ %indvars.iv.next.i.us, %Vec_StrPush.exit.i.us ], [ 0, %Vec_StrPush.exit.us ]
  %9 = getelementptr inbounds nuw i8, ptr @.str, i64 %indvars.iv.i.us
  %10 = load i8, ptr %9, align 1, !tbaa !36
  %11 = load i32, ptr %5, align 4, !tbaa !40
  %12 = load i32, ptr %0, align 8, !tbaa !41
  %13 = icmp eq i32 %11, %12
  br i1 %13, label %14, label %.Vec_StrGrow.exit10_crit_edge.i.i.us

.Vec_StrGrow.exit10_crit_edge.i.i.us:             ; preds = %..lr.ph.i_crit_edge.us
  %.pre.i.i.us = load ptr, ptr %.phi.trans.insert.i, align 8, !tbaa !33
  br label %Vec_StrPush.exit.i.us

14:                                               ; preds = %..lr.ph.i_crit_edge.us
  %15 = icmp slt i32 %11, 16
  br i1 %15, label %26, label %16

16:                                               ; preds = %14
  %17 = shl nuw nsw i32 %11, 1
  %18 = load ptr, ptr %.phi.trans.insert.i, align 8, !tbaa !33
  %.not9.i9.i.i.us = icmp eq ptr %18, null
  %19 = zext nneg i32 %17 to i64
  br i1 %.not9.i9.i.i.us, label %22, label %20

20:                                               ; preds = %16
  %21 = tail call ptr @realloc(ptr noundef nonnull %18, i64 noundef %19) #14
  br label %24

22:                                               ; preds = %16
  %23 = tail call noalias ptr @malloc(i64 noundef %19) #15
  br label %24

24:                                               ; preds = %22, %20
  %25 = phi ptr [ %21, %20 ], [ %23, %22 ]
  store ptr %25, ptr %.phi.trans.insert.i, align 8, !tbaa !33
  store i32 %17, ptr %0, align 8, !tbaa !41
  br label %Vec_StrPush.exit.i.us

26:                                               ; preds = %14
  %27 = load ptr, ptr %.phi.trans.insert.i, align 8, !tbaa !33
  %.not9.i.i.i.us = icmp eq ptr %27, null
  br i1 %.not9.i.i.i.us, label %30, label %28

28:                                               ; preds = %26
  %29 = tail call dereferenceable_or_null(16) ptr @realloc(ptr noundef nonnull %27, i64 noundef 16) #14
  br label %Vec_StrGrow.exit.i.i.us

30:                                               ; preds = %26
  %31 = tail call noalias dereferenceable_or_null(16) ptr @malloc(i64 noundef 16) #15
  br label %Vec_StrGrow.exit.i.i.us

Vec_StrGrow.exit.i.i.us:                          ; preds = %30, %28
  %32 = phi ptr [ %29, %28 ], [ %31, %30 ]
  store ptr %32, ptr %.phi.trans.insert.i, align 8, !tbaa !33
  store i32 16, ptr %0, align 8, !tbaa !41
  br label %Vec_StrPush.exit.i.us

Vec_StrPush.exit.i.us:                            ; preds = %Vec_StrGrow.exit.i.i.us, %24, %.Vec_StrGrow.exit10_crit_edge.i.i.us
  %33 = phi ptr [ %.pre.i.i.us, %.Vec_StrGrow.exit10_crit_edge.i.i.us ], [ %25, %24 ], [ %32, %Vec_StrGrow.exit.i.i.us ]
  %34 = load i32, ptr %5, align 4, !tbaa !40
  %35 = add nsw i32 %34, 1
  store i32 %35, ptr %5, align 4, !tbaa !40
  %36 = sext i32 %34 to i64
  %37 = getelementptr inbounds i8, ptr %33, i64 %36
  store i8 %10, ptr %37, align 1, !tbaa !36
  %indvars.iv.next.i.us = add nuw nsw i64 %indvars.iv.i.us, 1
  %exitcond.not.i.us = icmp eq i64 %indvars.iv.next.i.us, 3
  br i1 %exitcond.not.i.us, label %Vec_StrPrintStr.exit.us, label %..lr.ph.i_crit_edge.us, !llvm.loop !42

Vec_StrPrintStr.exit.us:                          ; preds = %Vec_StrPush.exit.i.us
  %indvars.iv.next = add nuw nsw i64 %indvars.iv, 1
  %exitcond25.not = icmp eq i64 %indvars.iv.next, %wide.trip.count
  br i1 %exitcond25.not, label %._crit_edge, label %.preheader.us, !llvm.loop !43

38:                                               ; preds = %.preheader.us, %Vec_StrPush.exit.us
  %.020.us = phi i32 [ 0, %.preheader.us ], [ %78, %Vec_StrPush.exit.us ]
  %39 = load ptr, ptr %8, align 8, !tbaa !15
  %40 = lshr i32 %.020.us, 5
  %41 = zext nneg i32 %40 to i64
  %42 = getelementptr inbounds nuw i64, ptr %39, i64 %41
  %43 = load i64, ptr %42, align 8, !tbaa !17
  %44 = shl nuw i32 %.020.us, 1
  %45 = and i32 %44, 62
  %46 = zext nneg i32 %45 to i64
  %47 = lshr i64 %43, %46
  %48 = and i64 %47, 3
  %49 = getelementptr inbounds nuw [3 x i8], ptr @__const.Io_ReadPlaCubeSetdown.Symbs, i64 0, i64 %48
  %50 = load i8, ptr %49, align 1, !tbaa !36
  %51 = load i32, ptr %5, align 4, !tbaa !40
  %52 = load i32, ptr %0, align 8, !tbaa !41
  %53 = icmp eq i32 %51, %52
  br i1 %53, label %54, label %.Vec_StrGrow.exit10_crit_edge.i.us

.Vec_StrGrow.exit10_crit_edge.i.us:               ; preds = %38
  %.pre.i.us = load ptr, ptr %.phi.trans.insert.i, align 8, !tbaa !33
  br label %Vec_StrPush.exit.us

54:                                               ; preds = %38
  %55 = icmp slt i32 %51, 16
  br i1 %55, label %66, label %56

56:                                               ; preds = %54
  %57 = shl nuw nsw i32 %51, 1
  %58 = load ptr, ptr %.phi.trans.insert.i, align 8, !tbaa !33
  %.not9.i9.i.us = icmp eq ptr %58, null
  %59 = zext nneg i32 %57 to i64
  br i1 %.not9.i9.i.us, label %62, label %60

60:                                               ; preds = %56
  %61 = tail call ptr @realloc(ptr noundef nonnull %58, i64 noundef %59) #14
  br label %64

62:                                               ; preds = %56
  %63 = tail call noalias ptr @malloc(i64 noundef %59) #15
  br label %64

64:                                               ; preds = %62, %60
  %65 = phi ptr [ %61, %60 ], [ %63, %62 ]
  store ptr %65, ptr %.phi.trans.insert.i, align 8, !tbaa !33
  store i32 %57, ptr %0, align 8, !tbaa !41
  br label %Vec_StrPush.exit.us

66:                                               ; preds = %54
  %67 = load ptr, ptr %.phi.trans.insert.i, align 8, !tbaa !33
  %.not9.i.i.us = icmp eq ptr %67, null
  br i1 %.not9.i.i.us, label %70, label %68

68:                                               ; preds = %66
  %69 = tail call dereferenceable_or_null(16) ptr @realloc(ptr noundef nonnull %67, i64 noundef 16) #14
  br label %Vec_StrGrow.exit.i.us

70:                                               ; preds = %66
  %71 = tail call noalias dereferenceable_or_null(16) ptr @malloc(i64 noundef 16) #15
  br label %Vec_StrGrow.exit.i.us

Vec_StrGrow.exit.i.us:                            ; preds = %70, %68
  %72 = phi ptr [ %69, %68 ], [ %71, %70 ]
  store ptr %72, ptr %.phi.trans.insert.i, align 8, !tbaa !33
  store i32 16, ptr %0, align 8, !tbaa !41
  br label %Vec_StrPush.exit.us

Vec_StrPush.exit.us:                              ; preds = %Vec_StrGrow.exit.i.us, %64, %.Vec_StrGrow.exit10_crit_edge.i.us
  %73 = phi ptr [ %.pre.i.us, %.Vec_StrGrow.exit10_crit_edge.i.us ], [ %65, %64 ], [ %72, %Vec_StrGrow.exit.i.us ]
  %74 = load i32, ptr %5, align 4, !tbaa !40
  %75 = add nsw i32 %74, 1
  store i32 %75, ptr %5, align 4, !tbaa !40
  %76 = sext i32 %74 to i64
  %77 = getelementptr inbounds i8, ptr %73, i64 %76
  store i8 %50, ptr %77, align 1, !tbaa !36
  %78 = add nuw nsw i32 %.020.us, 1
  %exitcond23.not = icmp eq i32 %78, %3
  br i1 %exitcond23.not, label %..lr.ph.i_crit_edge.us, label %38, !llvm.loop !44

.preheader:                                       ; preds = %.preheader.lr.ph, %Vec_StrPrintStr.exit
  %.01221 = phi i32 [ %109, %Vec_StrPrintStr.exit ], [ 0, %.preheader.lr.ph ]
  br label %79

79:                                               ; preds = %Vec_StrPush.exit.i, %.preheader
  %indvars.iv.i = phi i64 [ 0, %.preheader ], [ %indvars.iv.next.i, %Vec_StrPush.exit.i ]
  %80 = getelementptr inbounds nuw i8, ptr @.str, i64 %indvars.iv.i
  %81 = load i8, ptr %80, align 1, !tbaa !36
  %82 = load i32, ptr %5, align 4, !tbaa !40
  %83 = load i32, ptr %0, align 8, !tbaa !41
  %84 = icmp eq i32 %82, %83
  br i1 %84, label %85, label %.Vec_StrGrow.exit10_crit_edge.i.i

.Vec_StrGrow.exit10_crit_edge.i.i:                ; preds = %79
  %.pre.i.i = load ptr, ptr %.phi.trans.insert.i, align 8, !tbaa !33
  br label %Vec_StrPush.exit.i

85:                                               ; preds = %79
  %86 = icmp slt i32 %82, 16
  br i1 %86, label %87, label %94

87:                                               ; preds = %85
  %88 = load ptr, ptr %.phi.trans.insert.i, align 8, !tbaa !33
  %.not9.i.i.i = icmp eq ptr %88, null
  br i1 %.not9.i.i.i, label %91, label %89

89:                                               ; preds = %87
  %90 = tail call dereferenceable_or_null(16) ptr @realloc(ptr noundef nonnull %88, i64 noundef 16) #14
  br label %Vec_StrGrow.exit.i.i

91:                                               ; preds = %87
  %92 = tail call noalias dereferenceable_or_null(16) ptr @malloc(i64 noundef 16) #15
  br label %Vec_StrGrow.exit.i.i

Vec_StrGrow.exit.i.i:                             ; preds = %91, %89
  %93 = phi ptr [ %90, %89 ], [ %92, %91 ]
  store ptr %93, ptr %.phi.trans.insert.i, align 8, !tbaa !33
  store i32 16, ptr %0, align 8, !tbaa !41
  br label %Vec_StrPush.exit.i

94:                                               ; preds = %85
  %95 = shl nuw nsw i32 %82, 1
  %96 = load ptr, ptr %.phi.trans.insert.i, align 8, !tbaa !33
  %.not9.i9.i.i = icmp eq ptr %96, null
  %97 = zext nneg i32 %95 to i64
  br i1 %.not9.i9.i.i, label %100, label %98

98:                                               ; preds = %94
  %99 = tail call ptr @realloc(ptr noundef nonnull %96, i64 noundef %97) #14
  br label %102

100:                                              ; preds = %94
  %101 = tail call noalias ptr @malloc(i64 noundef %97) #15
  br label %102

102:                                              ; preds = %100, %98
  %103 = phi ptr [ %99, %98 ], [ %101, %100 ]
  store ptr %103, ptr %.phi.trans.insert.i, align 8, !tbaa !33
  store i32 %95, ptr %0, align 8, !tbaa !41
  br label %Vec_StrPush.exit.i

Vec_StrPush.exit.i:                               ; preds = %102, %Vec_StrGrow.exit.i.i, %.Vec_StrGrow.exit10_crit_edge.i.i
  %104 = phi ptr [ %.pre.i.i, %.Vec_StrGrow.exit10_crit_edge.i.i ], [ %103, %102 ], [ %93, %Vec_StrGrow.exit.i.i ]
  %105 = load i32, ptr %5, align 4, !tbaa !40
  %106 = add nsw i32 %105, 1
  store i32 %106, ptr %5, align 4, !tbaa !40
  %107 = sext i32 %105 to i64
  %108 = getelementptr inbounds i8, ptr %104, i64 %107
  store i8 %81, ptr %108, align 1, !tbaa !36
  %indvars.iv.next.i = add nuw nsw i64 %indvars.iv.i, 1
  %exitcond.not.i = icmp eq i64 %indvars.iv.next.i, 3
  br i1 %exitcond.not.i, label %Vec_StrPrintStr.exit, label %79, !llvm.loop !42

Vec_StrPrintStr.exit:                             ; preds = %Vec_StrPush.exit.i
  %109 = add nuw nsw i32 %.01221, 1
  %exitcond.not = icmp eq i32 %109, %2
  br i1 %exitcond.not, label %._crit_edge, label %.preheader, !llvm.loop !43

._crit_edge:                                      ; preds = %Vec_StrPrintStr.exit, %Vec_StrPrintStr.exit.us
  %.pr = load i32, ptr %5, align 4, !tbaa !40
  %110 = load i32, ptr %0, align 8, !tbaa !41
  %111 = icmp eq i32 %.pr, %110
  br i1 %111, label %114, label %.Vec_StrGrow.exit10_crit_edge.i13

._crit_edge.thread:                               ; preds = %4
  %112 = load i32, ptr %0, align 8, !tbaa !41
  %113 = icmp eq i32 %112, 0
  br i1 %113, label %.thread, label %.Vec_StrGrow.exit10_crit_edge.i13

.Vec_StrGrow.exit10_crit_edge.i13:                ; preds = %._crit_edge.thread, %._crit_edge
  %.phi.trans.insert.i14 = getelementptr inbounds nuw i8, ptr %0, i64 8
  %.pre.i15 = load ptr, ptr %.phi.trans.insert.i14, align 8, !tbaa !33
  br label %Vec_StrPush.exit19

114:                                              ; preds = %._crit_edge
  %115 = icmp slt i32 %.pr, 16
  br i1 %115, label %.thread, label %123

.thread:                                          ; preds = %._crit_edge.thread, %114
  %116 = getelementptr inbounds nuw i8, ptr %0, i64 8
  %117 = load ptr, ptr %116, align 8, !tbaa !33
  %.not9.i.i17 = icmp eq ptr %117, null
  br i1 %.not9.i.i17, label %120, label %118

118:                                              ; preds = %.thread
  %119 = tail call dereferenceable_or_null(16) ptr @realloc(ptr noundef nonnull %117, i64 noundef 16) #14
  br label %Vec_StrGrow.exit.i18

120:                                              ; preds = %.thread
  %121 = tail call noalias dereferenceable_or_null(16) ptr @malloc(i64 noundef 16) #15
  br label %Vec_StrGrow.exit.i18

Vec_StrGrow.exit.i18:                             ; preds = %120, %118
  %122 = phi ptr [ %119, %118 ], [ %121, %120 ]
  store ptr %122, ptr %116, align 8, !tbaa !33
  store i32 16, ptr %0, align 8, !tbaa !41
  br label %Vec_StrPush.exit19

123:                                              ; preds = %114
  %124 = shl nuw nsw i32 %.pr, 1
  %125 = getelementptr inbounds nuw i8, ptr %0, i64 8
  %126 = load ptr, ptr %125, align 8, !tbaa !33
  %.not9.i9.i16 = icmp eq ptr %126, null
  %127 = zext nneg i32 %124 to i64
  br i1 %.not9.i9.i16, label %130, label %128

128:                                              ; preds = %123
  %129 = tail call ptr @realloc(ptr noundef nonnull %126, i64 noundef %127) #14
  br label %132

130:                                              ; preds = %123
  %131 = tail call noalias ptr @malloc(i64 noundef %127) #15
  br label %132

132:                                              ; preds = %130, %128
  %133 = phi ptr [ %129, %128 ], [ %131, %130 ]
  store ptr %133, ptr %125, align 8, !tbaa !33
  store i32 %124, ptr %0, align 8, !tbaa !41
  br label %Vec_StrPush.exit19

Vec_StrPush.exit19:                               ; preds = %.Vec_StrGrow.exit10_crit_edge.i13, %Vec_StrGrow.exit.i18, %132
  %134 = phi ptr [ %.pre.i15, %.Vec_StrGrow.exit10_crit_edge.i13 ], [ %133, %132 ], [ %122, %Vec_StrGrow.exit.i18 ]
  %135 = load i32, ptr %5, align 4, !tbaa !40
  %136 = add nsw i32 %135, 1
  store i32 %136, ptr %5, align 4, !tbaa !40
  %137 = sext i32 %135 to i64
  %138 = getelementptr inbounds i8, ptr %134, i64 %137
  store i8 0, ptr %138, align 1, !tbaa !36
  ret void
}